target datalayout = "e-m:e-p270:32:32-p271:32:32-p272:64:64-i64:64-i128:128-f80:128-n8:16:32:64-S128"
target triple = "x86_64-pc-linux-gnu"

%struct._zval_struct = type { %union._zend_value, %union.anon, %union.anon.2 }
%union._zend_value = type { i64 }
%union.anon = type { i32 }
%union.anon.2 = type { i32 }
%struct._zend_array = type { %struct._zend_refcounted_h, %union.anon.4, i32, %union.anon.6, i32, i32, i32, i32, i64, ptr }
%struct._zend_refcounted_h = type { i32, %union.anon.3 }
%union.anon.3 = type { i32 }
%union.anon.4 = type { i32 }
%union.anon.6 = type { ptr }
%struct._zend_string = type { %struct._zend_refcounted_h, i64, i64, [1 x i8] }
%struct._phpdbg_watchpoint_t = type { %union.anon.27, i64, i32, ptr, %struct._zend_array, ptr, %union.anon.28 }
%union.anon.27 = type { ptr }
%union.anon.28 = type { %struct._zend_array }
%struct._phpdbg_watch_element = type { i32, ptr, i8, ptr, ptr, %struct._zend_array, ptr, ptr, ptr, %union.anon.29 }
%union.anon.29 = type { %struct._zend_array }

@.str.21 = private unnamed_addr constant [9 x i8] c"%.*s[%s]\00", align 1
@.str.22 = private unnamed_addr constant [9 x i8] c"%.*s->%s\00", align 1
@.str.23 = private unnamed_addr constant [10 x i8] c"%.*s[%ld]\00", align 1
@.str.24 = private unnamed_addr constant [10 x i8] c"%.*s->%ld\00", align 1

; Function Attrs: nounwind uwtable
define hidden void @phpdbg_set_addr_watchpoint(ptr noundef %0, i64 noundef %1, ptr noundef %2) #0 {
  %4 = alloca ptr, align 8
  %5 = alloca i64, align 8
  %6 = alloca ptr, align 8
  store ptr %0, ptr %4, align 8
  store i64 %1, ptr %5, align 8
  store ptr %2, ptr %6, align 8
  %7 = load ptr, ptr %4, align 8
  %8 = load ptr, ptr %6, align 8
  %9 = getelementptr inbounds %struct._phpdbg_watchpoint_t, ptr %8, i32 0, i32 0
  store ptr %7, ptr %9, align 8
  %10 = load i64, ptr %5, align 8
  %11 = load ptr, ptr %6, align 8
  %12 = getelementptr inbounds %struct._phpdbg_watchpoint_t, ptr %11, i32 0, i32 1
  store i64 %10, ptr %12, align 8
  %13 = load ptr, ptr %6, align 8
  %14 = getelementptr inbounds %struct._phpdbg_watchpoint_t, ptr %13, i32 0, i32 3
  store ptr null, ptr %14, align 8
  %15 = load ptr, ptr %6, align 8
  %16 = getelementptr inbounds %struct._phpdbg_watchpoint_t, ptr %15, i32 0, i32 5
  store ptr null, ptr %16, align 8
  %17 = load ptr, ptr %6, align 8
  %18 = getelementptr inbounds %struct._phpdbg_watchpoint_t, ptr %17, i32 0, i32 4
  call void @_zend_hash_init(ptr noundef %18, i32 noundef 8, ptr noundef null, i1 noundef zeroext false)
  ret void
}

; Function Attrs: nounwind uwtable
define hidden void @phpdbg_set_bucket_watchpoint(ptr noundef %0, ptr noundef %1) #0 {
  %3 = alloca ptr, align 8
  %4 = alloca ptr, align 8
  store ptr %0, ptr %3, align 8
  store ptr %1, ptr %4, align 8
  %5 = load ptr, ptr %3, align 8
  %6 = load ptr, ptr %4, align 8
  call void @phpdbg_set_addr_watchpoint(ptr noundef %5, i64 noundef 32, ptr noundef %6)
  %7 = load ptr, ptr %4, align 8
  %8 = getelementptr inbounds %struct._phpdbg_watchpoint_t, ptr %7, i32 0, i32 2
  store i32 5, ptr %8, align 8
  ret void
}

; Function Attrs: nounwind uwtable
define hidden ptr @phpdbg_add_bucket_watch_element(ptr noundef %0, ptr noundef %1) #0 {
  %3 = alloca ptr, align 8
  %4 = alloca ptr, align 8
  %5 = alloca %struct._phpdbg_watchpoint_t, align 8
  store ptr %0, ptr %3, align 8
  store ptr %1, ptr %4, align 8
  %6 = load ptr, ptr %3, align 8
  call void @phpdbg_set_bucket_watchpoint(ptr noundef %6, ptr noundef %5)
  %7 = load ptr, ptr %4, align 8
  %8 = call ptr @phpdbg_add_watch_element(ptr noundef %5, ptr noundef %7)
  store ptr %8, ptr %4, align 8
  %9 = load ptr, ptr %4, align 8
  call void @phpdbg_watch_parent_ht(ptr noundef %9)
  %10 = load ptr, ptr %4, align 8
  ret ptr %10
}

; Function Attrs: nounwind uwtable
define hidden zeroext i1 @phpdbg_is_recursively_watched(ptr noundef %0, ptr noundef %1) #0 {
  %3 = alloca i1, align 1
  %4 = alloca ptr, align 8
  %5 = alloca ptr, align 8
  %6 = alloca ptr, align 8
  store ptr %0, ptr %4, align 8
  store ptr %1, ptr %5, align 8
  %7 = load ptr, ptr %5, align 8
  store ptr %7, ptr %6, align 8
  br label %8

8:                                                ; preds = %22, %2
  %9 = load ptr, ptr %6, align 8
  store ptr %9, ptr %5, align 8
  %10 = load ptr, ptr %5, align 8
  %11 = getelementptr inbounds %struct._phpdbg_watch_element, ptr %10, i32 0, i32 1
  %12 = load ptr, ptr %11, align 8
  %13 = getelementptr inbounds %struct._phpdbg_watchpoint_t, ptr %12, i32 0, i32 0
  %14 = load ptr, ptr %13, align 8
  %15 = load ptr, ptr %4, align 8
  %16 = icmp eq ptr %14, %15
  br i1 %16, label %17, label %18

17:                                               ; preds = %8
  store i1 true, ptr %3, align 1
  br label %31

18:                                               ; preds = %8
  %19 = load ptr, ptr %5, align 8
  %20 = getelementptr inbounds %struct._phpdbg_watch_element, ptr %19, i32 0, i32 4
  %21 = load ptr, ptr %20, align 8
  store ptr %21, ptr %6, align 8
  br label %22

22:                                               ; preds = %18
  %23 = load ptr, ptr %5, align 8
  %24 = getelementptr inbounds %struct._phpdbg_watch_element, ptr %23, i32 0, i32 2
  %25 = load i8, ptr %24, align 8
  %26 = sext i8 %25 to i32
  %27 = and i32 %26, 32
  %28 = icmp ne i32 %27, 0
  %29 = xor i1 %28, true
  br i1 %29, label %8, label %30

30:                                               ; preds = %22
  store i1 false, ptr %3, align 1
  br label %31

31:                                               ; preds = %30, %17
  %32 = load i1, ptr %3, align 1
  ret i1 %32
}

; Function Attrs: nounwind uwtable
define hidden void @phpdbg_add_recursive_watch_from_ht(ptr noundef %0, i64 noundef %1, ptr noundef %2, ptr noundef %3) #0 {
  %5 = alloca ptr, align 8
  %6 = alloca i32, align 4
  %7 = alloca ptr, align 8
  %8 = alloca ptr, align 8
  %9 = alloca ptr, align 8
  %10 = alloca ptr, align 8
  %11 = alloca ptr, align 8
  %12 = alloca %struct._zval_struct, align 8
  %13 = alloca ptr, align 8
  %14 = alloca ptr, align 8
  %15 = alloca i64, align 8
  %16 = alloca ptr, align 8
  %17 = alloca ptr, align 8
  %18 = alloca ptr, align 8
  store ptr %0, ptr %14, align 8
  store i64 %1, ptr %15, align 8
  store ptr %2, ptr %16, align 8
  store ptr %3, ptr %17, align 8
  %19 = load ptr, ptr %17, align 8
  %20 = load ptr, ptr %14, align 8
  %21 = call zeroext i1 @phpdbg_is_recursively_watched(ptr noundef %19, ptr noundef %20)
  br i1 %21, label %22, label %23

22:                                               ; preds = %4
  br label %143

23:                                               ; preds = %4
  %24 = call noalias ptr @_emalloc_192()
  store ptr %24, ptr %18, align 8
  %25 = load ptr, ptr %18, align 8
  %26 = getelementptr inbounds %struct._phpdbg_watch_element, ptr %25, i32 0, i32 2
  store i8 2, ptr %26, align 8
  %27 = load ptr, ptr %16, align 8
  %28 = icmp ne ptr %27, null
  br i1 %28, label %29, label %56

29:                                               ; preds = %23
  %30 = load ptr, ptr %14, align 8
  %31 = getelementptr inbounds %struct._phpdbg_watch_element, ptr %30, i32 0, i32 2
  %32 = load i8, ptr %31, align 8
  %33 = sext i8 %32 to i32
  %34 = and i32 %33, 4
  %35 = icmp ne i32 %34, 0
  %36 = select i1 %35, ptr @.str.21, ptr @.str.22
  %37 = load ptr, ptr %14, align 8
  %38 = getelementptr inbounds %struct._phpdbg_watch_element, ptr %37, i32 0, i32 8
  %39 = load ptr, ptr %38, align 8
  %40 = getelementptr inbounds %struct._zend_string, ptr %39, i32 0, i32 2
  %41 = load i64, ptr %40, align 8
  %42 = trunc i64 %41 to i32
  %43 = sub nsw i32 %42, 2
  %44 = load ptr, ptr %14, align 8
  %45 = getelementptr inbounds %struct._phpdbg_watch_element, ptr %44, i32 0, i32 8
  %46 = load ptr, ptr %45, align 8
  %47 = getelementptr inbounds %struct._zend_string, ptr %46, i32 0, i32 3
  %48 = getelementptr inbounds [1 x i8], ptr %47, i64 0, i64 0
  %49 = load ptr, ptr %16, align 8
  %50 = getelementptr inbounds %struct._zend_string, ptr %49, i32 0, i32 3
  %51 = getelementptr inbounds [1 x i8], ptr %50, i64 0, i64 0
  %52 = call ptr @phpdbg_get_property_key(ptr noundef %51)
  %53 = call ptr (i64, ptr, ...) @zend_strpprintf(i64 noundef 0, ptr noundef %36, i32 noundef %43, ptr noundef %48, ptr noundef %52)
  %54 = load ptr, ptr %18, align 8
  %55 = getelementptr inbounds %struct._phpdbg_watch_element, ptr %54, i32 0, i32 8
  store ptr %53, ptr %55, align 8
  br label %80

56:                                               ; preds = %23
  %57 = load ptr, ptr %14, align 8
  %58 = getelementptr inbounds %struct._phpdbg_watch_element, ptr %57, i32 0, i32 2
  %59 = load i8, ptr %58, align 8
  %60 = sext i8 %59 to i32
  %61 = and i32 %60, 4
  %62 = icmp ne i32 %61, 0
  %63 = select i1 %62, ptr @.str.23, ptr @.str.24
  %64 = load ptr, ptr %14, align 8
  %65 = getelementptr inbounds %struct._phpdbg_watch_element, ptr %64, i32 0, i32 8
  %66 = load ptr, ptr %65, align 8
  %67 = getelementptr inbounds %struct._zend_string, ptr %66, i32 0, i32 2
  %68 = load i64, ptr %67, align 8
  %69 = trunc i64 %68 to i32
  %70 = sub nsw i32 %69, 2
  %71 = load ptr, ptr %14, align 8
  %72 = getelementptr inbounds %struct._phpdbg_watch_element, ptr %71, i32 0, i32 8
  %73 = load ptr, ptr %72, align 8
  %74 = getelementptr inbounds %struct._zend_string, ptr %73, i32 0, i32 3
  %75 = getelementptr inbounds [1 x i8], ptr %74, i64 0, i64 0
  %76 = load i64, ptr %15, align 8
  %77 = call ptr (i64, ptr, ...) @zend_strpprintf(i64 noundef 0, ptr noundef %63, i32 noundef %70, ptr noundef %75, i64 noundef %76)
  %78 = load ptr, ptr %18, align 8
  %79 = getelementptr inbounds %struct._phpdbg_watch_element, ptr %78, i32 0, i32 8
  store ptr %77, ptr %79, align 8
  br label %80

80:                                               ; preds = %56, %29
  %81 = load ptr, ptr %16, align 8
  %82 = icmp ne ptr %81, null
  br i1 %82, label %86, label %83

83:                                               ; preds = %80
  %84 = load i64, ptr %15, align 8
  %85 = call ptr @zend_long_to_str(i64 noundef %84)
  store ptr %85, ptr %16, align 8
  br label %102

86:                                               ; preds = %80
  %87 = load ptr, ptr %16, align 8
  store ptr %87, ptr %7, align 8
  %88 = load ptr, ptr %7, align 8
  %89 = getelementptr inbounds %struct._zend_refcounted_h, ptr %88, i32 0, i32 1
  %90 = load i32, ptr %89, align 4
  store i32 %90, ptr %6, align 4
  %91 = load i32, ptr %6, align 4
  %92 = and i32 %91, 1008
  %93 = and i32 %92, 64
  %94 = icmp ne i32 %93, 0
  br i1 %94, label %100, label %95

95:                                               ; preds = %86
  %96 = load ptr, ptr %7, align 8
  store ptr %96, ptr %5, align 8
  %97 = load ptr, ptr %5, align 8
  %98 = load i32, ptr %97, align 4
  %99 = add i32 %98, 1
  store i32 %99, ptr %97, align 4
  br label %100

100:                                              ; preds = %95, %86
  %101 = load ptr, ptr %7, align 8
  store ptr %101, ptr %16, align 8
  br label %102

102:                                              ; preds = %100, %83
  %103 = load ptr, ptr %16, align 8
  %104 = load ptr, ptr %18, align 8
  %105 = getelementptr inbounds %struct._phpdbg_watch_element, ptr %104, i32 0, i32 7
  store ptr %103, ptr %105, align 8
  %106 = load ptr, ptr %14, align 8
  %107 = load ptr, ptr %18, align 8
  %108 = getelementptr inbounds %struct._phpdbg_watch_element, ptr %107, i32 0, i32 4
  store ptr %106, ptr %108, align 8
  %109 = load ptr, ptr %18, align 8
  %110 = getelementptr inbounds %struct._phpdbg_watch_element, ptr %109, i32 0, i32 3
  store ptr null, ptr %110, align 8
  %111 = load ptr, ptr %14, align 8
  %112 = getelementptr inbounds %struct._phpdbg_watch_element, ptr %111, i32 0, i32 1
  %113 = load ptr, ptr %112, align 8
  %114 = getelementptr inbounds %struct._phpdbg_watchpoint_t, ptr %113, i32 0, i32 0
  %115 = load ptr, ptr %114, align 8
  %116 = getelementptr inbounds i8, ptr %115, i64 -12
  %117 = load ptr, ptr %18, align 8
  %118 = getelementptr inbounds %struct._phpdbg_watch_element, ptr %117, i32 0, i32 6
  store ptr %116, ptr %118, align 8
  %119 = load ptr, ptr %14, align 8
  %120 = getelementptr inbounds %struct._phpdbg_watch_element, ptr %119, i32 0, i32 5
  %121 = load ptr, ptr %18, align 8
  %122 = getelementptr inbounds %struct._phpdbg_watch_element, ptr %121, i32 0, i32 8
  %123 = load ptr, ptr %122, align 8
  %124 = load ptr, ptr %18, align 8
  store ptr %120, ptr %9, align 8
  store ptr %123, ptr %10, align 8
  store ptr %124, ptr %11, align 8
  %125 = load ptr, ptr %11, align 8
  store ptr %125, ptr %12, align 8
  %126 = getelementptr inbounds %struct._zval_struct, ptr %12, i32 0, i32 1
  store i32 13, ptr %126, align 8
  %127 = load ptr, ptr %9, align 8
  %128 = load ptr, ptr %10, align 8
  %129 = call ptr @zend_hash_add(ptr noundef %127, ptr noundef %128, ptr noundef %12) #11
  store ptr %129, ptr %13, align 8
  %130 = load ptr, ptr %13, align 8
  %131 = icmp ne ptr %130, null
  br i1 %131, label %132, label %138

132:                                              ; preds = %102
  %133 = load ptr, ptr %13, align 8
  %134 = load ptr, ptr %133, align 8
  %135 = icmp ne ptr %134, null
  call void @llvm.assume(i1 %135)
  %136 = load ptr, ptr %13, align 8
  %137 = load ptr, ptr %136, align 8
  store ptr %137, ptr %8, align 8
  br label %139

138:                                              ; preds = %102
  store ptr null, ptr %8, align 8
  br label %139

139:                                              ; preds = %138, %132
  %140 = load ptr, ptr %17, align 8
  %141 = load ptr, ptr %18, align 8
  %142 = call ptr @phpdbg_add_bucket_watch_element(ptr noundef %140, ptr noundef %141)
  br label %143

143:                                              ; preds = %139, %22
  ret void
}