; Function Attrs: nounwind uwtable
define hidden void @phpdbg_add_recursive_watch_from_ht(ptr noundef %0, i64 noundef %1, ptr noundef %2, ptr noundef %3) local_unnamed_addr #0 {
  %5 = alloca %struct._phpdbg_watchpoint_t, align 8
  %6 = alloca %struct._zval_struct, align 8
  br label %7

7:                                                ; preds = %12, %4
  %.0.i = phi ptr [ %0, %4 ], [ %14, %12 ]
  %8 = getelementptr inbounds i8, ptr %.0.i, i64 8
  %9 = load ptr, ptr %8, align 8
  %10 = load ptr, ptr %9, align 8
  %11 = icmp eq ptr %10, %3
  br i1 %11, label %phpdbg_is_recursively_watched.exit.thread, label %12

12:                                               ; preds = %7
  %13 = getelementptr inbounds i8, ptr %.0.i, i64 32
  %14 = load ptr, ptr %13, align 8
  %15 = getelementptr inbounds i8, ptr %.0.i, i64 16
  %16 = load i8, ptr %15, align 8
  %17 = and i8 %16, 32
  %.not.i = icmp eq i8 %17, 0
  br i1 %.not.i, label %7, label %phpdbg_is_recursively_watched.exit

phpdbg_is_recursively_watched.exit:               ; preds = %12
  %18 = tail call noalias ptr @_emalloc_192() #17
  %19 = getelementptr inbounds i8, ptr %18, i64 16
  store i8 2, ptr %19, align 8
  %.not = icmp eq ptr %2, null
  %20 = getelementptr inbounds i8, ptr %0, i64 16
  %21 = load i8, ptr %20, align 8
  %22 = and i8 %21, 4
  %.not41 = icmp eq i8 %22, 0
  %23 = getelementptr inbounds i8, ptr %0, i64 112
  %24 = load ptr, ptr %23, align 8
  %25 = getelementptr inbounds i8, ptr %24, i64 16
  %26 = load i64, ptr %25, align 8
  %27 = trunc i64 %26 to i32
  %28 = add nsw i32 %27, -2
  %29 = getelementptr inbounds i8, ptr %24, i64 24
  br i1 %.not, label %30, label %35

30:                                               ; preds = %phpdbg_is_recursively_watched.exit
  %31 = select i1 %.not41, ptr @.str.24, ptr @.str.23
  %32 = tail call ptr (i64, ptr, ...) @zend_strpprintf(i64 noundef 0, ptr noundef nonnull %31, i32 noundef %28, ptr noundef nonnull %29, i64 noundef %1) #17
  %33 = getelementptr inbounds i8, ptr %18, i64 112
  store ptr %32, ptr %33, align 8
  %34 = tail call ptr @zend_long_to_str(i64 noundef %1) #17
  br label %47

35:                                               ; preds = %phpdbg_is_recursively_watched.exit
  %36 = select i1 %.not41, ptr @.str.22, ptr @.str.21
  %37 = getelementptr inbounds i8, ptr %2, i64 24
  %38 = tail call ptr @phpdbg_get_property_key(ptr noundef nonnull %37) #17
  %39 = tail call ptr (i64, ptr, ...) @zend_strpprintf(i64 noundef 0, ptr noundef nonnull %36, i32 noundef %28, ptr noundef nonnull %29, ptr noundef %38) #17
  %40 = getelementptr inbounds i8, ptr %18, i64 112
  store ptr %39, ptr %40, align 8
  %41 = getelementptr inbounds i8, ptr %2, i64 4
  %42 = load i32, ptr %41, align 4
  %43 = and i32 %42, 64
  %.not43 = icmp eq i32 %43, 0
  br i1 %.not43, label %44, label %47

44:                                               ; preds = %35
  %45 = load i32, ptr %2, align 4
  %46 = add i32 %45, 1
  store i32 %46, ptr %2, align 4
  br label %47

47:                                               ; preds = %35, %44, %30
  %48 = phi ptr [ %32, %30 ], [ %39, %44 ], [ %39, %35 ]
  %.0 = phi ptr [ %34, %30 ], [ %2, %44 ], [ %2, %35 ]
  %49 = getelementptr inbounds i8, ptr %18, i64 104
  store ptr %.0, ptr %49, align 8
  %50 = getelementptr inbounds i8, ptr %18, i64 32
  store ptr %0, ptr %50, align 8
  %51 = getelementptr inbounds i8, ptr %18, i64 24
  store ptr null, ptr %51, align 8
  %52 = getelementptr inbounds i8, ptr %0, i64 8
  %53 = load ptr, ptr %52, align 8
  %54 = load ptr, ptr %53, align 8
  %55 = getelementptr inbounds i8, ptr %54, i64 -12
  %56 = getelementptr inbounds i8, ptr %18, i64 96
  store ptr %55, ptr %56, align 8
  %57 = getelementptr inbounds i8, ptr %0, i64 40
  store ptr %18, ptr %6, align 8
  %58 = getelementptr inbounds i8, ptr %6, i64 8
  store i32 13, ptr %58, align 8
  %59 = call ptr @zend_hash_add(ptr noundef nonnull %57, ptr noundef %48, ptr noundef nonnull %6) #17
  %.not44 = icmp eq ptr %59, null
  br i1 %.not44, label %63, label %60

60:                                               ; preds = %47
  %61 = load ptr, ptr %59, align 8
  %62 = icmp ne ptr %61, null
  call void @llvm.assume(i1 %62)
  br label %63

63:                                               ; preds = %47, %60
  call void @llvm.lifetime.start.p0(i64 152, ptr nonnull %5)
  store ptr %3, ptr %5, align 8
  %64 = getelementptr inbounds i8, ptr %5, i64 8
  store i64 32, ptr %64, align 8
  %65 = getelementptr inbounds i8, ptr %5, i64 24
  store ptr null, ptr %65, align 8
  %66 = getelementptr inbounds i8, ptr %5, i64 88
  store ptr null, ptr %66, align 8
  %67 = getelementptr inbounds i8, ptr %5, i64 32
  call void @_zend_hash_init(ptr noundef nonnull %67, i32 noundef 8, ptr noundef null, i1 noundef zeroext false) #17
  %68 = getelementptr inbounds i8, ptr %5, i64 16
  store i32 5, ptr %68, align 8
  %69 = call ptr @phpdbg_add_watch_element(ptr noundef nonnull %5, ptr noundef nonnull %18)
  call void @phpdbg_watch_parent_ht(ptr noundef %69)
  call void @llvm.lifetime.end.p0(i64 152, ptr nonnull %5)
  br label %phpdbg_is_recursively_watched.exit.thread

phpdbg_is_recursively_watched.exit.thread:        ; preds = %7, %63
  ret void
}